; Function Attrs: mustprogress uwtable
define noundef zeroext i1 @_ZNK32pxrInternal_v0_24__pxrReserved__16SdfValueTypeName7IsArrayEv(ptr noundef nonnull readonly align 8 captures(none) dereferenceable(8) %0) local_unnamed_addr #1 align 2 {
  %2 = load ptr, ptr %0, align 8
  %3 = tail call noundef ptr @_ZN32pxrInternal_v0_24__pxrReserved__20Sdf_ValueTypePrivate16GetEmptyTypeNameEv()
  %.not = icmp eq ptr %2, %3
  br i1 %.not, label %9, label %4

4:                                                ; preds = %1
  %5 = load ptr, ptr %0, align 8
  %6 = getelementptr inbounds nuw i8, ptr %5, i64 24
  %7 = load ptr, ptr %6, align 8
  %8 = icmp eq ptr %5, %7
  br label %9

9:                                                ; preds = %4, %1
  %10 = phi i1 [ false, %1 ], [ %8, %4 ]
  ret i1 %10
}